target datalayout = "e-m:e-p270:32:32-p271:32:32-p272:64:64-i64:64-i128:128-f80:128-n8:16:32:64-S128"
target triple = "x86_64-pc-linux-gnu"

%struct.pointf_s = type { double, double }
%struct.Agiodisc_s = type { ptr, ptr, ptr }
%struct.GVJ_s = type { ptr, ptr, ptr, ptr, ptr, ptr, i32, ptr, ptr, ptr, ptr, i64, i64, ptr, i32, %struct.gvplugin_active_render_s, %struct.gvplugin_active_device_s, %struct.gvplugin_active_loadimage_t, ptr, %struct.pointf_s, i8, ptr, i32, ptr, i8, ptr, i32, i32, i32, %struct.point, %struct.point, %struct.point, %struct.point, %struct.point, i32, %struct.boxf, %struct.pointf_s, %struct.boxf, %struct.boxf, %struct.pointf_s, %struct.pointf_s, double, i32, %struct.pointf_s, %struct.boxf, %struct.pointf_s, %struct.pointf_s, i32, i32, %struct.box, %struct.box, %struct.pointf_s, %struct.pointf_s, %struct.pointf_s, i8, i8, i8, i8, i8, i8, %struct.pointf_s, %struct.pointf_s, ptr, ptr, ptr, ptr, ptr, ptr, i64, ptr }
%struct.gvplugin_active_render_s = type { ptr, i32, ptr, ptr }
%struct.gvplugin_active_device_s = type { ptr, i32, ptr, ptr }
%struct.gvplugin_active_loadimage_t = type { ptr, i32, ptr }
%struct.point = type { i32, i32 }
%struct.boxf = type { %struct.pointf_s, %struct.pointf_s }
%struct.box = type { %struct.point, %struct.point }
%struct.obj_state_s = type { ptr, i32, %union.anon, i32, %struct.color_s, %struct.color_s, %struct.color_s, i32, double, i32, i32, double, ptr, double, double, double, ptr, ptr, ptr, ptr, ptr, ptr, ptr, ptr, ptr, ptr, ptr, ptr, ptr, ptr, ptr, ptr, ptr, i16, i32, i64, ptr, i64, ptr, ptr, i32, ptr, i32, ptr }
%union.anon = type { ptr }
%struct.color_s = type { %union.anon.0, i32 }
%union.anon.0 = type { [4 x double] }
%struct.state_t = type { i32, i8, i8 }
%struct.Agraph_s = type { %struct.Agobj_s, %struct.Agdesc_s, %struct.dtlink_s_, %struct.dtlink_s_, ptr, ptr, ptr, ptr, ptr, ptr, ptr, ptr, ptr }
%struct.Agobj_s = type { %struct.Agtag_s, ptr }
%struct.Agtag_s = type { i32, i64 }
%struct.Agdesc_s = type { i8, [3 x i8] }
%struct.dtlink_s_ = type { ptr, %union.anon.1 }
%union.anon.1 = type { ptr }
%struct.Agclos_s = type { %struct.Agdisc_s, %struct.Agdstate_s, ptr, [3 x i64], ptr, [3 x ptr], [3 x ptr] }
%struct.Agdisc_s = type { ptr, ptr }
%struct.Agdstate_s = type { ptr }
%struct.Agraphinfo_t = type { %struct.Agrec_s, ptr, ptr, %struct.boxf, [4 x %struct.pointf_s], i8, i8, i8, i8, i32, double, double, i16, ptr, ptr, ptr, ptr, i32, ptr, ptr, ptr, ptr, i16, i16, i32, ptr, ptr, ptr, ptr, ptr, i32, ptr, ptr, %struct.nlist_t, ptr, ptr, i32, i32, i8, i8, i32, i32, i32, ptr, ptr, ptr, ptr, i8, i8, i8, i8, i8 }
%struct.Agrec_s = type { ptr, ptr }
%struct.nlist_t = type { ptr, i64 }

@json_end_graph.io = internal global %struct.Agiodisc_s zeroinitializer, align 8
@AgIoDisc = external global %struct.Agiodisc_s, align 8

; Function Attrs: nounwind uwtable
define internal void @json_end_graph(ptr noundef %0) #0 {
  %2 = alloca ptr, align 8
  %3 = alloca ptr, align 8
  %4 = alloca %struct.state_t, align 4
  store ptr %0, ptr %2, align 8, !tbaa !3
  call void @llvm.lifetime.start.p0(i64 8, ptr %3) #9
  %5 = load ptr, ptr %2, align 8, !tbaa !3
  %6 = getelementptr inbounds nuw %struct.GVJ_s, ptr %5, i32 0, i32 4
  %7 = load ptr, ptr %6, align 8, !tbaa !33
  %8 = getelementptr inbounds nuw %struct.obj_state_s, ptr %7, i32 0, i32 2
  %9 = load ptr, ptr %8, align 8, !tbaa !34
  store ptr %9, ptr %3, align 8, !tbaa !35
  call void @llvm.lifetime.start.p0(i64 8, ptr %4) #9
  %10 = load ptr, ptr @json_end_graph.io, align 8, !tbaa !51
  %11 = icmp eq ptr %10, null
  br i1 %11, label %12, label %14

12:                                               ; preds = %1
  %13 = load ptr, ptr @AgIoDisc, align 8, !tbaa !51
  store ptr %13, ptr @json_end_graph.io, align 8, !tbaa !51
  store ptr @gvputs, ptr getelementptr inbounds nuw (%struct.Agiodisc_s, ptr @json_end_graph.io, i32 0, i32 1), align 8, !tbaa !53
  store ptr @gvflush, ptr getelementptr inbounds nuw (%struct.Agiodisc_s, ptr @json_end_graph.io, i32 0, i32 2), align 8, !tbaa !54
  br label %14

14:                                               ; preds = %12, %1
  %15 = load ptr, ptr %3, align 8, !tbaa !35
  %16 = getelementptr inbounds nuw %struct.Agraph_s, ptr %15, i32 0, i32 12
  %17 = load ptr, ptr %16, align 8, !tbaa !55
  %18 = getelementptr inbounds nuw %struct.Agclos_s, ptr %17, i32 0, i32 0
  %19 = getelementptr inbounds nuw %struct.Agdisc_s, ptr %18, i32 0, i32 1
  store ptr @json_end_graph.io, ptr %19, align 8, !tbaa !65
  %20 = load ptr, ptr %3, align 8, !tbaa !35
  call void @set_attrwf(ptr noundef %20, i1 noundef zeroext true, i1 noundef zeroext false)
  %21 = getelementptr inbounds nuw %struct.state_t, ptr %4, i32 0, i32 0
  store i32 0, ptr %21, align 4, !tbaa !72
  %22 = load ptr, ptr %3, align 8, !tbaa !35
  %23 = getelementptr inbounds nuw %struct.Agobj_s, ptr %22, i32 0, i32 1
  %24 = load ptr, ptr %23, align 8, !tbaa !74
  %25 = getelementptr inbounds nuw %struct.Agraphinfo_t, ptr %24, i32 0, i32 8
  %26 = load i8, ptr %25, align 1, !tbaa !75
  %27 = zext i8 %26 to i32
  %28 = icmp eq i32 %27, 1
  %29 = getelementptr inbounds nuw %struct.state_t, ptr %4, i32 0, i32 1
  %30 = zext i1 %28 to i8
  store i8 %30, ptr %29, align 4, !tbaa !88
  %31 = load ptr, ptr %2, align 8, !tbaa !3
  %32 = getelementptr inbounds nuw %struct.GVJ_s, ptr %31, i32 0, i32 15
  %33 = getelementptr inbounds nuw %struct.gvplugin_active_render_s, ptr %32, i32 0, i32 1
  %34 = load i32, ptr %33, align 8, !tbaa !8
  %35 = icmp eq i32 %34, 0
  br i1 %35, label %42, label %36

36:                                               ; preds = %14
  %37 = load ptr, ptr %2, align 8, !tbaa !3
  %38 = getelementptr inbounds nuw %struct.GVJ_s, ptr %37, i32 0, i32 15
  %39 = getelementptr inbounds nuw %struct.gvplugin_active_render_s, ptr %38, i32 0, i32 1
  %40 = load i32, ptr %39, align 8, !tbaa !8
  %41 = icmp eq i32 %40, 3
  br label %42

42:                                               ; preds = %36, %14
  %43 = phi i1 [ true, %14 ], [ %41, %36 ]
  %44 = getelementptr inbounds nuw %struct.state_t, ptr %4, i32 0, i32 2
  %45 = zext i1 %43 to i8
  store i8 %45, ptr %44, align 1, !tbaa !89
  %46 = load ptr, ptr %3, align 8, !tbaa !35
  %47 = load ptr, ptr %2, align 8, !tbaa !3
  call void @write_graph(ptr noundef %46, ptr noundef %47, i1 noundef zeroext true, ptr noundef %4)
  call void @llvm.lifetime.end.p0(i64 8, ptr %4) #9
  call void @llvm.lifetime.end.p0(i64 8, ptr %3) #9
  ret void
}