; Function Attrs: nounwind uwtable
define internal void @json_end_graph(ptr noundef %0) #0 {
  %2 = alloca %struct.state_t, align 4
  %3 = getelementptr inbounds nuw i8, ptr %0, i64 32
  %4 = load ptr, ptr %3, align 8, !tbaa !31
  %5 = getelementptr inbounds nuw i8, ptr %4, i64 16
  %6 = load ptr, ptr %5, align 8, !tbaa !32
  call void @llvm.lifetime.start.p0(i64 8, ptr nonnull %2) #15
  %7 = load ptr, ptr @json_end_graph.io, align 8, !tbaa !48
  %8 = icmp eq ptr %7, null
  br i1 %8, label %9, label %11

9:                                                ; preds = %1
  %10 = load ptr, ptr @AgIoDisc, align 8, !tbaa !48
  store ptr %10, ptr @json_end_graph.io, align 8, !tbaa !48
  store ptr @gvputs, ptr getelementptr inbounds nuw (i8, ptr @json_end_graph.io, i64 8), align 8, !tbaa !50
  store ptr @gvflush, ptr getelementptr inbounds nuw (i8, ptr @json_end_graph.io, i64 16), align 8, !tbaa !51
  br label %11

11:                                               ; preds = %9, %1
  %12 = getelementptr inbounds nuw i8, ptr %6, i64 128
  %13 = load ptr, ptr %12, align 8, !tbaa !52
  %14 = getelementptr inbounds nuw i8, ptr %13, i64 8
  store ptr @json_end_graph.io, ptr %14, align 8, !tbaa !62
  tail call fastcc void @set_attrwf(ptr noundef %6, i1 noundef zeroext true)
  store i32 0, ptr %2, align 4, !tbaa !69
  %15 = getelementptr inbounds nuw i8, ptr %6, i64 16
  %16 = load ptr, ptr %15, align 8, !tbaa !71
  %17 = getelementptr inbounds nuw i8, ptr %16, i64 131
  %18 = load i8, ptr %17, align 1, !tbaa !72
  %19 = icmp eq i8 %18, 1
  %20 = getelementptr inbounds nuw i8, ptr %2, i64 4
  %21 = zext i1 %19 to i8
  store i8 %21, ptr %20, align 4, !tbaa !85
  %22 = getelementptr inbounds nuw i8, ptr %0, i64 128
  %23 = load i32, ptr %22, align 8, !tbaa !3
  %24 = icmp eq i32 %23, 0
  %25 = icmp eq i32 %23, 3
  %narrow = or i1 %24, %25
  %26 = zext i1 %narrow to i8
  %27 = getelementptr inbounds nuw i8, ptr %2, i64 5
  store i8 %26, ptr %27, align 1, !tbaa !86
  call fastcc void @write_graph(ptr noundef %6, ptr noundef nonnull %0, i1 noundef zeroext true, ptr noundef %2)
  call void @llvm.lifetime.end.p0(i64 8, ptr nonnull %2) #15
  ret void
}